; Function Attrs: mustprogress nofree norecurse nosync nounwind willreturn memory(argmem: readwrite) uwtable
define internal range(i32 0, 3) i32 @fold_fload_str_len_tostr(ptr noundef captures(none) %0) #5 {
  %2 = getelementptr inbounds nuw i8, ptr %0, i64 168
  %3 = load i32, ptr %2, align 8, !tbaa !4
  %4 = and i32 %3, 65536
  %.not = icmp eq i32 %4, 0
  br i1 %.not, label %11, label %5, !prof !33

5:                                                ; preds = %1
  %6 = getelementptr inbounds nuw i8, ptr %0, i64 194
  %7 = load i16, ptr %6, align 2, !tbaa !28
  %8 = icmp eq i16 %7, 2
  br i1 %8, label %9, label %11

9:                                                ; preds = %5
  %10 = getelementptr inbounds nuw i8, ptr %0, i64 184
  store i32 1, ptr %10, align 8, !tbaa !28
  br label %11

11:                                               ; preds = %1, %5, %9
  %.0 = phi i32 [ 2, %9 ], [ 0, %5 ], [ 0, %1 ]
  ret i32 %.0
}